; Function Attrs: inlinehint mustprogress nounwind uwtable
define internal void @_ZN9grpc_core12_GLOBAL__N_127HierarchicalAddressIteratorD0Ev(ptr noundef nonnull align 8 dereferenceable(32) %0) unnamed_addr #13 align 2 personality ptr @__gxx_personality_v0 {
  %2 = getelementptr inbounds nuw i8, ptr %0, i64 24
  %3 = load ptr, ptr %2, align 8, !tbaa !12
  %.not.i.i.i = icmp eq ptr %3, null
  br i1 %.not.i.i.i, label %_ZN9grpc_core21RefCountedStringValueD2Ev.exit.i, label %4

4:                                                ; preds = %1
  %5 = atomicrmw sub ptr %3, i64 1 acq_rel, align 8
  %6 = icmp eq i64 %5, 1
  br i1 %6, label %7, label %_ZN9grpc_core21RefCountedStringValueD2Ev.exit.i

7:                                                ; preds = %4
  invoke void @_ZN9grpc_core16RefCountedString7DestroyEv(ptr noundef nonnull align 8 dereferenceable(16) %3)
          to label %_ZN9grpc_core21RefCountedStringValueD2Ev.exit.i unwind label %8

8:                                                ; preds = %7
  %9 = landingpad { ptr, i32 }
          catch ptr null
  %10 = extractvalue { ptr, i32 } %9, 0
  tail call void @__clang_call_terminate(ptr %10) #24
  unreachable

_ZN9grpc_core21RefCountedStringValueD2Ev.exit.i:  ; preds = %7, %4, %1
  %11 = getelementptr inbounds nuw i8, ptr %0, i64 16
  %12 = load ptr, ptr %11, align 8, !tbaa !48
  %.not.i.i1.i = icmp eq ptr %12, null
  br i1 %.not.i.i1.i, label %_ZN9grpc_core12_GLOBAL__N_127HierarchicalAddressIteratorD2Ev.exit, label %13

13:                                               ; preds = %_ZN9grpc_core21RefCountedStringValueD2Ev.exit.i
  %14 = getelementptr inbounds nuw i8, ptr %12, i64 8
  %15 = load atomic i64, ptr %14 acquire, align 8
  %16 = icmp eq i64 %15, 4294967297
  %17 = trunc i64 %15 to i32
  br i1 %16, label %18, label %26

18:                                               ; preds = %13
  store i32 0, ptr %14, align 8, !tbaa !49
  %19 = getelementptr inbounds nuw i8, ptr %12, i64 12
  store i32 0, ptr %19, align 4, !tbaa !52
  %20 = load ptr, ptr %12, align 8, !tbaa !42
  %21 = getelementptr inbounds nuw i8, ptr %20, i64 16
  %22 = load ptr, ptr %21, align 8
  tail call void %22(ptr noundef nonnull align 8 dereferenceable(16) %12) #23
  %23 = load ptr, ptr %12, align 8, !tbaa !42
  %24 = getelementptr inbounds nuw i8, ptr %23, i64 24
  %25 = load ptr, ptr %24, align 8
  tail call void %25(ptr noundef nonnull align 8 dereferenceable(16) %12) #23
  br label %_ZN9grpc_core12_GLOBAL__N_127HierarchicalAddressIteratorD2Ev.exit

26:                                               ; preds = %13
  %27 = load i8, ptr @__libc_single_threaded, align 1, !tbaa !53
  %.not.i.i.i.i = icmp eq i8 %27, 0
  br i1 %.not.i.i.i.i, label %30, label %28

28:                                               ; preds = %26
  %29 = add nsw i32 %17, -1
  store i32 %29, ptr %14, align 4, !tbaa !54
  br label %_ZN9__gnu_cxx27__exchange_and_add_dispatchEPii.exit.i.i.i.i

30:                                               ; preds = %26
  %31 = atomicrmw volatile add ptr %14, i32 -1 acq_rel, align 4
  br label %_ZN9__gnu_cxx27__exchange_and_add_dispatchEPii.exit.i.i.i.i

_ZN9__gnu_cxx27__exchange_and_add_dispatchEPii.exit.i.i.i.i: ; preds = %30, %28
  %.0.i.i.i.i.i = phi i32 [ %17, %28 ], [ %31, %30 ]
  %32 = icmp eq i32 %.0.i.i.i.i.i, 1
  br i1 %32, label %33, label %_ZN9grpc_core12_GLOBAL__N_127HierarchicalAddressIteratorD2Ev.exit, !prof !55

33:                                               ; preds = %_ZN9__gnu_cxx27__exchange_and_add_dispatchEPii.exit.i.i.i.i
  tail call void @_ZNSt16_Sp_counted_baseILN9__gnu_cxx12_Lock_policyE2EE24_M_release_last_use_coldEv(ptr noundef nonnull align 8 dereferenceable(16) %12) #23
  br label %_ZN9grpc_core12_GLOBAL__N_127HierarchicalAddressIteratorD2Ev.exit

_ZN9grpc_core12_GLOBAL__N_127HierarchicalAddressIteratorD2Ev.exit: ; preds = %_ZN9grpc_core21RefCountedStringValueD2Ev.exit.i, %18, %_ZN9__gnu_cxx27__exchange_and_add_dispatchEPii.exit.i.i.i.i, %33
  tail call void @_ZdlPvm(ptr noundef nonnull %0, i64 noundef 32) #25
  ret void
}